target datalayout = "e-m:e-p270:32:32-p271:32:32-p272:64:64-i64:64-i128:128-f80:128-n8:16:32:64-S128"
target triple = "x86_64-pc-linux-gnu"

; Function Attrs: alwaysinline nounwind willreturn memory(none) uwtable
define internal zeroext i8 @av_clip_uint8_c(i32 noundef %0) #8 {
  %2 = alloca i8, align 1
  %3 = alloca i32, align 4
  store i32 %0, ptr %3, align 4, !tbaa !11
  %4 = load i32, ptr %3, align 4, !tbaa !11
  %5 = and i32 %4, -256
  %6 = icmp ne i32 %5, 0
  br i1 %6, label %7, label %12

7:                                                ; preds = %1
  %8 = load i32, ptr %3, align 4, !tbaa !11
  %9 = xor i32 %8, -1
  %10 = ashr i32 %9, 31
  %11 = trunc i32 %10 to i8
  store i8 %11, ptr %2, align 1
  br label %15

12:                                               ; preds = %1
  %13 = load i32, ptr %3, align 4, !tbaa !11
  %14 = trunc i32 %13 to i8
  store i8 %14, ptr %2, align 1
  br label %15

15:                                               ; preds = %12, %7
  %16 = load i8, ptr %2, align 1
  ret i8 %16
}

; Function Attrs: nounwind uwtable
define internal void @filter_roberts(ptr noundef %0, i32 noundef %1, float noundef %2, float noundef %3, ptr noundef %4, ptr noundef %5, i32 noundef %6, i32 noundef %7, i32 noundef %8, i32 noundef %9, i32 noundef %10) #0 {
  %12 = alloca ptr, align 8
  %13 = alloca i32, align 4
  %14 = alloca float, align 4
  %15 = alloca float, align 4
  %16 = alloca ptr, align 8
  %17 = alloca ptr, align 8
  %18 = alloca i32, align 4
  %19 = alloca i32, align 4
  %20 = alloca i32, align 4
  %21 = alloca i32, align 4
  %22 = alloca i32, align 4
  %23 = alloca i32, align 4
  %24 = alloca float, align 4
  %25 = alloca float, align 4
  store ptr %0, ptr %12, align 8, !tbaa !9
  store i32 %1, ptr %13, align 4, !tbaa !11
  store float %2, ptr %14, align 4, !tbaa !52
  store float %3, ptr %15, align 4, !tbaa !52
  store ptr %4, ptr %16, align 8, !tbaa !53
  store ptr %5, ptr %17, align 8, !tbaa !89
  store i32 %6, ptr %18, align 4, !tbaa !11
  store i32 %7, ptr %19, align 4, !tbaa !11
  store i32 %8, ptr %20, align 4, !tbaa !11
  store i32 %9, ptr %21, align 4, !tbaa !11
  store i32 %10, ptr %22, align 4, !tbaa !11
  call void @llvm.lifetime.start.p0(i64 4, ptr %23) #10
  store i32 0, ptr %23, align 4, !tbaa !11
  br label %26

26:                                               ; preds = %87, %11
  %27 = load i32, ptr %23, align 4, !tbaa !11
  %28 = load i32, ptr %13, align 4, !tbaa !11
  %29 = icmp slt i32 %27, %28
  br i1 %29, label %30, label %90

30:                                               ; preds = %26
  call void @llvm.lifetime.start.p0(i64 4, ptr %24) #10
  %31 = load ptr, ptr %17, align 8, !tbaa !89
  %32 = getelementptr inbounds ptr, ptr %31, i64 0
  %33 = load ptr, ptr %32, align 8, !tbaa !9
  %34 = load i32, ptr %23, align 4, !tbaa !11
  %35 = sext i32 %34 to i64
  %36 = getelementptr inbounds i8, ptr %33, i64 %35
  %37 = load i8, ptr %36, align 1, !tbaa !91
  %38 = zext i8 %37 to i32
  %39 = mul nsw i32 %38, 1
  %40 = load ptr, ptr %17, align 8, !tbaa !89
  %41 = getelementptr inbounds ptr, ptr %40, i64 1
  %42 = load ptr, ptr %41, align 8, !tbaa !9
  %43 = load i32, ptr %23, align 4, !tbaa !11
  %44 = sext i32 %43 to i64
  %45 = getelementptr inbounds i8, ptr %42, i64 %44
  %46 = load i8, ptr %45, align 1, !tbaa !91
  %47 = zext i8 %46 to i32
  %48 = mul nsw i32 %47, -1
  %49 = add nsw i32 %39, %48
  %50 = sitofp i32 %49 to float
  store float %50, ptr %24, align 4, !tbaa !52
  call void @llvm.lifetime.start.p0(i64 4, ptr %25) #10
  %51 = load ptr, ptr %17, align 8, !tbaa !89
  %52 = getelementptr inbounds ptr, ptr %51, i64 4
  %53 = load ptr, ptr %52, align 8, !tbaa !9
  %54 = load i32, ptr %23, align 4, !tbaa !11
  %55 = sext i32 %54 to i64
  %56 = getelementptr inbounds i8, ptr %53, i64 %55
  %57 = load i8, ptr %56, align 1, !tbaa !91
  %58 = zext i8 %57 to i32
  %59 = mul nsw i32 %58, 1
  %60 = load ptr, ptr %17, align 8, !tbaa !89
  %61 = getelementptr inbounds ptr, ptr %60, i64 3
  %62 = load ptr, ptr %61, align 8, !tbaa !9
  %63 = load i32, ptr %23, align 4, !tbaa !11
  %64 = sext i32 %63 to i64
  %65 = getelementptr inbounds i8, ptr %62, i64 %64
  %66 = load i8, ptr %65, align 1, !tbaa !91
  %67 = zext i8 %66 to i32
  %68 = mul nsw i32 %67, -1
  %69 = add nsw i32 %59, %68
  %70 = sitofp i32 %69 to float
  store float %70, ptr %25, align 4, !tbaa !52
  %71 = load float, ptr %24, align 4, !tbaa !52
  %72 = load float, ptr %24, align 4, !tbaa !52
  %73 = load float, ptr %25, align 4, !tbaa !52
  %74 = load float, ptr %25, align 4, !tbaa !52
  %75 = fmul nsz float %73, %74
  %76 = call nsz float @llvm.fmuladd.f32(float %71, float %72, float %75)
  %77 = call nsz float @llvm.sqrt.f32(float %76)
  %78 = load float, ptr %14, align 4, !tbaa !52
  %79 = load float, ptr %15, align 4, !tbaa !52
  %80 = call nsz float @llvm.fmuladd.f32(float %77, float %78, float %79)
  %81 = fptosi float %80 to i32
  %82 = call zeroext i8 @av_clip_uint8_c(i32 noundef %81) #12
  %83 = load ptr, ptr %12, align 8, !tbaa !9
  %84 = load i32, ptr %23, align 4, !tbaa !11
  %85 = sext i32 %84 to i64
  %86 = getelementptr inbounds i8, ptr %83, i64 %85
  store i8 %82, ptr %86, align 1, !tbaa !91
  call void @llvm.lifetime.end.p0(i64 4, ptr %25) #10
  call void @llvm.lifetime.end.p0(i64 4, ptr %24) #10
  br label %87

87:                                               ; preds = %30
  %88 = load i32, ptr %23, align 4, !tbaa !11
  %89 = add nsw i32 %88, 1
  store i32 %89, ptr %23, align 4, !tbaa !11
  br label %26, !llvm.loop !109

90:                                               ; preds = %26
  call void @llvm.lifetime.end.p0(i64 4, ptr %23) #10
  ret void
}