; Function Attrs: nofree norecurse nosync nounwind memory(read, argmem: readwrite, inaccessiblemem: none) uwtable
define internal void @filter_roberts(ptr noundef writeonly captures(none) %0, i32 noundef %1, float noundef %2, float noundef %3, ptr readnone captures(none) %4, ptr noundef readonly captures(none) %5, i32 %6, i32 %7, i32 %8, i32 %9, i32 %10) #6 {
  %12 = icmp sgt i32 %1, 0
  br i1 %12, label %.lr.ph, label %._crit_edge

.lr.ph:                                           ; preds = %11
  %13 = getelementptr inbounds nuw i8, ptr %5, i64 8
  %14 = getelementptr inbounds nuw i8, ptr %5, i64 32
  %15 = getelementptr inbounds nuw i8, ptr %5, i64 24
  %wide.trip.count = zext nneg i32 %1 to i64
  br label %16

16:                                               ; preds = %.lr.ph, %16
  %indvars.iv = phi i64 [ 0, %.lr.ph ], [ %indvars.iv.next, %16 ]
  %17 = load ptr, ptr %5, align 8, !tbaa !46
  %18 = getelementptr inbounds nuw i8, ptr %17, i64 %indvars.iv
  %19 = load i8, ptr %18, align 1, !tbaa !82
  %20 = zext i8 %19 to i32
  %21 = load ptr, ptr %13, align 8, !tbaa !46
  %22 = getelementptr inbounds nuw i8, ptr %21, i64 %indvars.iv
  %23 = load i8, ptr %22, align 1, !tbaa !82
  %24 = zext i8 %23 to i32
  %25 = sub nsw i32 %20, %24
  %26 = sitofp i32 %25 to float
  %27 = load ptr, ptr %14, align 8, !tbaa !46
  %28 = getelementptr inbounds nuw i8, ptr %27, i64 %indvars.iv
  %29 = load i8, ptr %28, align 1, !tbaa !82
  %30 = zext i8 %29 to i32
  %31 = load ptr, ptr %15, align 8, !tbaa !46
  %32 = getelementptr inbounds nuw i8, ptr %31, i64 %indvars.iv
  %33 = load i8, ptr %32, align 1, !tbaa !82
  %34 = zext i8 %33 to i32
  %35 = sub nsw i32 %30, %34
  %36 = sitofp i32 %35 to float
  %37 = fmul nsz float %36, %36
  %38 = tail call nsz float @llvm.fmuladd.f32(float %26, float %26, float %37)
  %39 = tail call nsz float @llvm.sqrt.f32(float %38)
  %40 = tail call nsz float @llvm.fmuladd.f32(float %39, float %2, float %3)
  %41 = fptosi float %40 to i32
  %.not.i = icmp ult i32 %41, 256
  %isnotneg.i = icmp sgt i32 %41, -1
  %42 = sext i1 %isnotneg.i to i8
  %43 = trunc nuw i32 %41 to i8
  %.0.i = select i1 %.not.i, i8 %43, i8 %42
  %44 = getelementptr inbounds nuw i8, ptr %0, i64 %indvars.iv
  store i8 %.0.i, ptr %44, align 1, !tbaa !82
  %indvars.iv.next = add nuw nsw i64 %indvars.iv, 1
  %exitcond.not = icmp eq i64 %indvars.iv.next, %wide.trip.count
  br i1 %exitcond.not, label %._crit_edge, label %16, !llvm.loop !100

._crit_edge:                                      ; preds = %16, %11
  ret void
}